; Function Attrs: mustprogress nounwind uwtable
define void @_ZN8nanobind6detail18trampoline_releaseEPPvm(ptr noundef readonly captures(none) %0, i64 noundef %1) local_unnamed_addr #0 personality ptr @__gxx_personality_v0 {
  %invariant.gep = getelementptr i8, ptr %0, i64 16
  %.not = icmp eq i64 %1, 0
  br i1 %.not, label %._crit_edge, label %.lr.ph

._crit_edge:                                      ; preds = %_ZL11_Py_XDECREFP7_object.exit, %2
  ret void

.lr.ph:                                           ; preds = %2, %_ZL11_Py_XDECREFP7_object.exit
  %.04 = phi i64 [ %8, %_ZL11_Py_XDECREFP7_object.exit ], [ 0, %2 ]
  %.idx = shl i64 %.04, 4
  %gep = getelementptr i8, ptr %invariant.gep, i64 %.idx
  %3 = load ptr, ptr %gep, align 8
  %.not.i = icmp eq ptr %3, null
  br i1 %.not.i, label %_ZL11_Py_XDECREFP7_object.exit, label %4

4:                                                ; preds = %.lr.ph
  %5 = load i64, ptr %3, align 8
  %6 = add nsw i64 %5, -1
  store i64 %6, ptr %3, align 8
  %.not.i.i = icmp eq i64 %6, 0
  br i1 %.not.i.i, label %7, label %_ZL11_Py_XDECREFP7_object.exit

7:                                                ; preds = %4
  invoke void @_Py_Dealloc(ptr noundef nonnull %3)
          to label %_ZL11_Py_XDECREFP7_object.exit unwind label %9

_ZL11_Py_XDECREFP7_object.exit:                   ; preds = %4, %.lr.ph, %7
  %8 = add nuw i64 %.04, 1
  %exitcond.not = icmp eq i64 %8, %1
  br i1 %exitcond.not, label %._crit_edge, label %.lr.ph, !llvm.loop !7

9:                                                ; preds = %7
  %10 = landingpad { ptr, i32 }
          catch ptr null
  %11 = extractvalue { ptr, i32 } %10, 0
  tail call void @__clang_call_terminate(ptr %11) #9
  unreachable
}